target datalayout = "e-m:e-p270:32:32-p271:32:32-p272:64:64-i64:64-i128:128-f80:128-n8:16:32:64-S128"
target triple = "x86_64-pc-linux-gnu"

%struct.cli_ctx_tag = type { ptr, ptr, ptr, ptr, ptr, ptr, ptr, i64, ptr, i32, i32, ptr, i32, i32, ptr, [16 x i8], ptr, ptr, ptr, ptr, ptr, ptr, %struct.timeval, i8, i8 }
%struct.timeval = type { i64, i64 }
%struct.recursion_level_tag = type { i32, i64, ptr, i32, i32, i32, %struct.image_fuzzy_hash, i8 }
%struct.image_fuzzy_hash = type { [8 x i8] }
%struct.cl_fmap = type { ptr, ptr, ptr, i64, i64, i64, i64, i8, i8, i8, i64, i64, i64, i64, ptr, ptr, ptr, ptr, ptr, ptr, ptr, i8, [16 x i8], i8, [20 x i8], i8, [32 x i8], ptr, ptr }

@.str.71 = private unnamed_addr constant [63 x i8] c"dispatch_file_inspection_callback: scan cancelled by callback\0A\00", align 1
@.str.72 = private unnamed_addr constant [61 x i8] c"dispatch_file_inspection_callback: file blocked by callback\0A\00", align 1
@.str.73 = private unnamed_addr constant [32 x i8] c"Detected.By.Callback.Inspection\00", align 1
@.str.74 = private unnamed_addr constant [75 x i8] c"dispatch_file_inspection_callback: ignoring bad return code from callback\0A\00", align 1

; Function Attrs: nounwind uwtable
define internal ptr @fmap_need_off_once(ptr noundef %0, i64 noundef %1, i64 noundef %2) #0 {
  %4 = alloca ptr, align 8
  %5 = alloca i64, align 8
  %6 = alloca i64, align 8
  store ptr %0, ptr %4, align 8
  store i64 %1, ptr %5, align 8
  store i64 %2, ptr %6, align 8
  %7 = load ptr, ptr %4, align 8
  %8 = getelementptr inbounds %struct.cl_fmap, ptr %7, i32 0, i32 15
  %9 = load ptr, ptr %8, align 8
  %10 = load ptr, ptr %4, align 8
  %11 = load i64, ptr %5, align 8
  %12 = load i64, ptr %6, align 8
  %13 = call ptr %9(ptr noundef %10, i64 noundef %11, i64 noundef %12, i32 noundef 0)
  ret ptr %13
}

; Function Attrs: nounwind uwtable
define internal void @perf_stop(ptr noundef %0, i32 noundef %1) #0 {
  %3 = alloca ptr, align 8
  %4 = alloca i32, align 4
  store ptr %0, ptr %3, align 8
  store i32 %1, ptr %4, align 4
  %5 = load ptr, ptr %3, align 8
  %6 = getelementptr inbounds %struct.cli_ctx_tag, ptr %5, i32 0, i32 19
  %7 = load ptr, ptr %6, align 8
  %8 = load i32, ptr %4, align 4
  call void @cli_event_time_stop(ptr noundef %7, i32 noundef %8)
  ret void
}

; Function Attrs: nounwind uwtable
define internal void @perf_start(ptr noundef %0, i32 noundef %1) #0 {
  %3 = alloca ptr, align 8
  %4 = alloca i32, align 4
  store ptr %0, ptr %3, align 8
  store i32 %1, ptr %4, align 4
  %5 = load ptr, ptr %3, align 8
  %6 = getelementptr inbounds %struct.cli_ctx_tag, ptr %5, i32 0, i32 19
  %7 = load ptr, ptr %6, align 8
  %8 = load i32, ptr %4, align 4
  call void @cli_event_time_start(ptr noundef %7, i32 noundef %8)
  ret void
}

; Function Attrs: nounwind uwtable
define internal ptr @fmap_need_off_once_len(ptr noundef %0, i64 noundef %1, i64 noundef %2, ptr noundef %3) #0 {
  %5 = alloca ptr, align 8
  %6 = alloca ptr, align 8
  %7 = alloca i64, align 8
  %8 = alloca i64, align 8
  %9 = alloca ptr, align 8
  %10 = alloca ptr, align 8
  store ptr %0, ptr %6, align 8
  store i64 %1, ptr %7, align 8
  store i64 %2, ptr %8, align 8
  store ptr %3, ptr %9, align 8
  %11 = load i64, ptr %7, align 8
  %12 = load ptr, ptr %6, align 8
  %13 = getelementptr inbounds %struct.cl_fmap, ptr %12, i32 0, i32 13
  %14 = load i64, ptr %13, align 8
  %15 = icmp uge i64 %11, %14
  br i1 %15, label %16, label %18

16:                                               ; preds = %4
  %17 = load ptr, ptr %9, align 8
  store i64 0, ptr %17, align 8
  store ptr null, ptr %5, align 8
  br label %46

18:                                               ; preds = %4
  %19 = load i64, ptr %8, align 8
  %20 = load ptr, ptr %6, align 8
  %21 = getelementptr inbounds %struct.cl_fmap, ptr %20, i32 0, i32 13
  %22 = load i64, ptr %21, align 8
  %23 = load i64, ptr %7, align 8
  %24 = sub i64 %22, %23
  %25 = icmp ugt i64 %19, %24
  br i1 %25, label %26, label %32

26:                                               ; preds = %18
  %27 = load ptr, ptr %6, align 8
  %28 = getelementptr inbounds %struct.cl_fmap, ptr %27, i32 0, i32 13
  %29 = load i64, ptr %28, align 8
  %30 = load i64, ptr %7, align 8
  %31 = sub i64 %29, %30
  store i64 %31, ptr %8, align 8
  br label %32

32:                                               ; preds = %26, %18
  %33 = load ptr, ptr %6, align 8
  %34 = load i64, ptr %7, align 8
  %35 = load i64, ptr %8, align 8
  %36 = call ptr @fmap_need_off_once(ptr noundef %33, i64 noundef %34, i64 noundef %35)
  store ptr %36, ptr %10, align 8
  %37 = load ptr, ptr %10, align 8
  %38 = icmp ne ptr %37, null
  br i1 %38, label %39, label %41

39:                                               ; preds = %32
  %40 = load i64, ptr %8, align 8
  br label %42

41:                                               ; preds = %32
  br label %42

42:                                               ; preds = %41, %39
  %43 = phi i64 [ %40, %39 ], [ 0, %41 ]
  %44 = load ptr, ptr %9, align 8
  store i64 %43, ptr %44, align 8
  %45 = load ptr, ptr %10, align 8
  store ptr %45, ptr %5, align 8
  br label %46

46:                                               ; preds = %42, %16
  %47 = load ptr, ptr %5, align 8
  ret ptr %47
}

; Function Attrs: nounwind uwtable
define internal i32 @dispatch_file_inspection_callback(ptr noundef %0, ptr noundef %1, ptr noundef %2) #0 {
  %4 = alloca ptr, align 8
  %5 = alloca ptr, align 8
  %6 = alloca ptr, align 8
  %7 = alloca i32, align 4
  %8 = alloca i32, align 4
  %9 = alloca i64, align 8
  %10 = alloca ptr, align 8
  %11 = alloca ptr, align 8
  %12 = alloca i64, align 8
  %13 = alloca ptr, align 8
  %14 = alloca ptr, align 8
  %15 = alloca i64, align 8
  %16 = alloca ptr, align 8
  store ptr %0, ptr %4, align 8
  store ptr %1, ptr %5, align 8
  store ptr %2, ptr %6, align 8
  store i32 0, ptr %7, align 4
  store i32 -1, ptr %8, align 4
  %17 = load ptr, ptr %5, align 8
  %18 = getelementptr inbounds %struct.cli_ctx_tag, ptr %17, i32 0, i32 13
  %19 = load i32, ptr %18, align 4
  %20 = zext i32 %19 to i64
  store i64 %20, ptr %9, align 8
  store ptr null, ptr %10, align 8
  store ptr null, ptr %11, align 8
  store i64 0, ptr %12, align 8
  store ptr null, ptr %13, align 8
  store ptr null, ptr %14, align 8
  store i64 0, ptr %15, align 8
  %21 = load ptr, ptr %4, align 8
  %22 = icmp eq ptr null, %21
  br i1 %22, label %23, label %24

23:                                               ; preds = %3
  br label %128

24:                                               ; preds = %3
  %25 = load ptr, ptr %5, align 8
  %26 = getelementptr inbounds %struct.cli_ctx_tag, ptr %25, i32 0, i32 11
  %27 = load ptr, ptr %26, align 8
  %28 = load i64, ptr %9, align 8
  %29 = getelementptr inbounds %struct.recursion_level_tag, ptr %27, i64 %28
  %30 = getelementptr inbounds %struct.recursion_level_tag, ptr %29, i32 0, i32 2
  %31 = load ptr, ptr %30, align 8
  store ptr %31, ptr %10, align 8
  %32 = load ptr, ptr %10, align 8
  %33 = call i32 @fmap_fd(ptr noundef %32)
  store i32 %33, ptr %8, align 4
  br label %34

34:                                               ; preds = %24
  %35 = load ptr, ptr %5, align 8
  %36 = getelementptr inbounds %struct.cli_ctx_tag, ptr %35, i32 0, i32 13
  %37 = load i32, ptr %36, align 4
  %38 = add i32 %37, 1
  %39 = zext i32 %38 to i64
  %40 = call ptr @cli_max_calloc(i64 noundef %39, i64 noundef 8)
  store ptr %40, ptr %14, align 8
  %41 = load ptr, ptr %14, align 8
  %42 = icmp eq ptr null, %41
  br i1 %42, label %43, label %46

43:                                               ; preds = %34
  br label %44

44:                                               ; preds = %43
  store i32 20, ptr %7, align 4
  br label %45

45:                                               ; preds = %44
  br label %128

46:                                               ; preds = %34
  br label %47

47:                                               ; preds = %46
  %48 = load ptr, ptr %10, align 8
  %49 = getelementptr inbounds %struct.cl_fmap, ptr %48, i32 0, i32 28
  %50 = load ptr, ptr %49, align 8
  store ptr %50, ptr %11, align 8
  %51 = load ptr, ptr %10, align 8
  %52 = load ptr, ptr %10, align 8
  %53 = getelementptr inbounds %struct.cl_fmap, ptr %52, i32 0, i32 13
  %54 = load i64, ptr %53, align 8
  %55 = call ptr @fmap_need_off_once_len(ptr noundef %51, i64 noundef 0, i64 noundef %54, ptr noundef %12)
  store ptr %55, ptr %13, align 8
  br label %56

56:                                               ; preds = %85, %47
  %57 = load i64, ptr %9, align 8
  %58 = icmp ugt i64 %57, 0
  br i1 %58, label %59, label %92

59:                                               ; preds = %56
  %60 = load i64, ptr %9, align 8
  %61 = sub i64 %60, 1
  store i64 %61, ptr %9, align 8
  %62 = load ptr, ptr %5, align 8
  %63 = getelementptr inbounds %struct.cli_ctx_tag, ptr %62, i32 0, i32 11
  %64 = load ptr, ptr %63, align 8
  %65 = load i64, ptr %9, align 8
  %66 = getelementptr inbounds %struct.recursion_level_tag, ptr %64, i64 %65
  %67 = getelementptr inbounds %struct.recursion_level_tag, ptr %66, i32 0, i32 2
  %68 = load ptr, ptr %67, align 8
  store ptr %68, ptr %16, align 8
  %69 = load ptr, ptr %5, align 8
  %70 = getelementptr inbounds %struct.cli_ctx_tag, ptr %69, i32 0, i32 13
  %71 = load i32, ptr %70, align 4
  %72 = icmp ugt i32 %71, 0
  br i1 %72, label %73, label %85

73:                                               ; preds = %59
  %74 = load i64, ptr %9, align 8
  %75 = load ptr, ptr %5, align 8
  %76 = getelementptr inbounds %struct.cli_ctx_tag, ptr %75, i32 0, i32 13
  %77 = load i32, ptr %76, align 4
  %78 = sub i32 %77, 1
  %79 = zext i32 %78 to i64
  %80 = icmp eq i64 %74, %79
  br i1 %80, label %81, label %85

81:                                               ; preds = %73
  %82 = load ptr, ptr %16, align 8
  %83 = getelementptr inbounds %struct.cl_fmap, ptr %82, i32 0, i32 13
  %84 = load i64, ptr %83, align 8
  store i64 %84, ptr %15, align 8
  br label %85

85:                                               ; preds = %81, %73, %59
  %86 = load ptr, ptr %16, align 8
  %87 = getelementptr inbounds %struct.cl_fmap, ptr %86, i32 0, i32 28
  %88 = load ptr, ptr %87, align 8
  %89 = load ptr, ptr %14, align 8
  %90 = load i64, ptr %9, align 8
  %91 = getelementptr inbounds ptr, ptr %89, i64 %90
  store ptr %88, ptr %91, align 8
  br label %56

92:                                               ; preds = %56
  %93 = load ptr, ptr %5, align 8
  call void @perf_start(ptr noundef %93, i32 noundef 1)
  %94 = load ptr, ptr %4, align 8
  %95 = load i32, ptr %8, align 4
  %96 = load ptr, ptr %6, align 8
  %97 = load ptr, ptr %14, align 8
  %98 = load i64, ptr %15, align 8
  %99 = load ptr, ptr %11, align 8
  %100 = load i64, ptr %12, align 8
  %101 = load ptr, ptr %13, align 8
  %102 = load ptr, ptr %5, align 8
  %103 = getelementptr inbounds %struct.cli_ctx_tag, ptr %102, i32 0, i32 13
  %104 = load i32, ptr %103, align 4
  %105 = load ptr, ptr %5, align 8
  %106 = getelementptr inbounds %struct.cli_ctx_tag, ptr %105, i32 0, i32 11
  %107 = load ptr, ptr %106, align 8
  %108 = load ptr, ptr %5, align 8
  %109 = getelementptr inbounds %struct.cli_ctx_tag, ptr %108, i32 0, i32 13
  %110 = load i32, ptr %109, align 4
  %111 = zext i32 %110 to i64
  %112 = getelementptr inbounds %struct.recursion_level_tag, ptr %107, i64 %111
  %113 = getelementptr inbounds %struct.recursion_level_tag, ptr %112, i32 0, i32 5
  %114 = load i32, ptr %113, align 8
  %115 = load ptr, ptr %5, align 8
  %116 = getelementptr inbounds %struct.cli_ctx_tag, ptr %115, i32 0, i32 18
  %117 = load ptr, ptr %116, align 8
  %118 = call i32 %94(i32 noundef %95, ptr noundef %96, ptr noundef %97, i64 noundef %98, ptr noundef %99, i64 noundef %100, ptr noundef %101, i32 noundef %104, i32 noundef %114, ptr noundef %117)
  store i32 %118, ptr %7, align 4
  %119 = load ptr, ptr %5, align 8
  call void @perf_stop(ptr noundef %119, i32 noundef 1)
  %120 = load i32, ptr %7, align 4
  switch i32 %120, label %126 [
    i32 22, label %121
    i32 1, label %122
    i32 0, label %125
  ]

121:                                              ; preds = %92
  call void (ptr, ...) @cli_dbgmsg(ptr noundef @.str.71)
  store i32 22, ptr %7, align 4
  br label %127

122:                                              ; preds = %92
  call void (ptr, ...) @cli_dbgmsg(ptr noundef @.str.72)
  %123 = load ptr, ptr %5, align 8
  %124 = call i32 @cli_append_virus(ptr noundef %123, ptr noundef @.str.73)
  store i32 1, ptr %7, align 4
  br label %127

125:                                              ; preds = %92
  br label %127

126:                                              ; preds = %92
  store i32 0, ptr %7, align 4
  call void (ptr, ...) @cli_warnmsg(ptr noundef @.str.74)
  br label %127

127:                                              ; preds = %126, %125, %122, %121
  br label %128

128:                                              ; preds = %127, %45, %23
  br label %129

129:                                              ; preds = %128
  %130 = load ptr, ptr %14, align 8
  %131 = icmp ne ptr null, %130
  br i1 %131, label %132, label %134

132:                                              ; preds = %129
  %133 = load ptr, ptr %14, align 8
  call void @free(ptr noundef %133) #11
  store ptr null, ptr %14, align 8
  br label %134

134:                                              ; preds = %132, %129
  br label %135

135:                                              ; preds = %134
  %136 = load i32, ptr %7, align 4
  ret i32 %136
}