; Function Attrs: nounwind uwtable
define internal fastcc range(i32 0, 23) i32 @dispatch_file_inspection_callback(ptr noundef readonly %0, ptr noundef %1, ptr noundef %2) unnamed_addr #0 {
  %4 = getelementptr inbounds nuw i8, ptr %1, i64 92
  %5 = load i32, ptr %4, align 4
  %6 = zext i32 %5 to i64
  %7 = icmp eq ptr %0, null
  br i1 %7, label %58, label %8

8:                                                ; preds = %3
  %9 = getelementptr inbounds nuw i8, ptr %1, i64 80
  %10 = load ptr, ptr %9, align 8
  %11 = getelementptr inbounds nuw %struct.recursion_level_tag, ptr %10, i64 %6, i32 2
  %12 = load ptr, ptr %11, align 8
  %13 = tail call i32 @fmap_fd(ptr noundef %12) #16
  %14 = load i32, ptr %4, align 4
  %15 = add i32 %14, 1
  %16 = zext i32 %15 to i64
  %17 = tail call ptr @cli_max_calloc(i64 noundef %16, i64 noundef 8) #16
  %18 = icmp eq ptr %17, null
  br i1 %18, label %58, label %19

19:                                               ; preds = %8
  %20 = getelementptr inbounds nuw i8, ptr %12, i64 232
  %21 = load ptr, ptr %20, align 8
  %22 = getelementptr inbounds nuw i8, ptr %12, i64 88
  %23 = load i64, ptr %22, align 8
  %.not.i.not = icmp eq i64 %23, 0
  br i1 %.not.i.not, label %fmap_need_off_once_len.exit, label %24

24:                                               ; preds = %19
  %25 = getelementptr inbounds nuw i8, ptr %12, i64 104
  %26 = load ptr, ptr %25, align 8
  %27 = tail call ptr %26(ptr noundef nonnull %12, i64 noundef 0, i64 noundef %23, i32 noundef 0) #16
  %.not20.i = icmp eq ptr %27, null
  %28 = select i1 %.not20.i, i64 0, i64 %23
  br label %fmap_need_off_once_len.exit

fmap_need_off_once_len.exit:                      ; preds = %19, %24
  %storemerge.i = phi i64 [ %28, %24 ], [ 0, %19 ]
  %.0.i = phi ptr [ %27, %24 ], [ null, %19 ]
  %.not57 = icmp eq i32 %5, 0
  br i1 %.not57, label %._crit_edge, label %.lr.ph

.lr.ph:                                           ; preds = %fmap_need_off_once_len.exit, %40
  %.03859 = phi i64 [ %.1, %40 ], [ 0, %fmap_need_off_once_len.exit ]
  %.04058 = phi i64 [ %29, %40 ], [ %6, %fmap_need_off_once_len.exit ]
  %29 = add nsw i64 %.04058, -1
  %30 = load ptr, ptr %9, align 8
  %31 = getelementptr inbounds nuw %struct.recursion_level_tag, ptr %30, i64 %29, i32 2
  %32 = load ptr, ptr %31, align 8
  %33 = load i32, ptr %4, align 4
  %.not46 = icmp ne i32 %33, 0
  %34 = add i32 %33, -1
  %35 = zext i32 %34 to i64
  %36 = icmp eq i64 %29, %35
  %or.cond = and i1 %.not46, %36
  br i1 %or.cond, label %37, label %40

37:                                               ; preds = %.lr.ph
  %38 = getelementptr inbounds nuw i8, ptr %32, i64 88
  %39 = load i64, ptr %38, align 8
  br label %40

40:                                               ; preds = %37, %.lr.ph
  %.1 = phi i64 [ %39, %37 ], [ %.03859, %.lr.ph ]
  %41 = getelementptr inbounds nuw i8, ptr %32, i64 232
  %42 = load ptr, ptr %41, align 8
  %43 = getelementptr inbounds nuw ptr, ptr %17, i64 %29
  store ptr %42, ptr %43, align 8
  %.not = icmp eq i64 %29, 0
  br i1 %.not, label %._crit_edge, label %.lr.ph

._crit_edge:                                      ; preds = %40, %fmap_need_off_once_len.exit
  %.038.lcssa = phi i64 [ 0, %fmap_need_off_once_len.exit ], [ %.1, %40 ]
  %44 = getelementptr i8, ptr %1, i64 144
  %.val = load ptr, ptr %44, align 8
  tail call void @cli_event_time_start(ptr noundef %.val, i32 noundef 1) #16
  %45 = load i32, ptr %4, align 4
  %46 = load ptr, ptr %9, align 8
  %47 = zext i32 %45 to i64
  %48 = getelementptr inbounds nuw %struct.recursion_level_tag, ptr %46, i64 %47, i32 5
  %49 = load i32, ptr %48, align 8
  %50 = getelementptr inbounds nuw i8, ptr %1, i64 136
  %51 = load ptr, ptr %50, align 8
  %52 = tail call i32 %0(i32 noundef %13, ptr noundef %2, ptr noundef nonnull %17, i64 noundef %.038.lcssa, ptr noundef %21, i64 noundef %storemerge.i, ptr noundef %.0.i, i32 noundef %45, i32 noundef %49, ptr noundef %51) #16
  %.val50 = load ptr, ptr %44, align 8
  tail call void @cli_event_time_stop(ptr noundef %.val50, i32 noundef 1) #16
  switch i32 %52, label %56 [
    i32 22, label %53
    i32 1, label %54
    i32 0, label %57
  ]

53:                                               ; preds = %._crit_edge
  tail call void (ptr, ...) @cli_dbgmsg(ptr noundef nonnull @.str.71) #16
  br label %57

54:                                               ; preds = %._crit_edge
  tail call void (ptr, ...) @cli_dbgmsg(ptr noundef nonnull @.str.72) #16
  %55 = tail call i32 @cli_append_virus(ptr noundef nonnull %1, ptr noundef nonnull @.str.73) #16
  br label %57

56:                                               ; preds = %._crit_edge
  tail call void (ptr, ...) @cli_warnmsg(ptr noundef nonnull @.str.74) #16
  br label %57

57:                                               ; preds = %56, %._crit_edge, %54, %53
  %.0.ph = phi i32 [ 22, %53 ], [ 1, %54 ], [ %52, %._crit_edge ], [ 0, %56 ]
  tail call void @free(ptr noundef nonnull %17) #16
  br label %58

58:                                               ; preds = %3, %8, %57
  %.056 = phi i32 [ %.0.ph, %57 ], [ 0, %3 ], [ 20, %8 ]
  ret i32 %.056
}